; Function Attrs: mustprogress nounwind uwtable
define hidden void @_ZN14PhaseIdealLoop17init_dom_lca_tagsEv(ptr noundef nonnull align 8 dereferenceable(237) %0) local_unnamed_addr #0 align 2 {
  %2 = getelementptr inbounds i8, ptr %0, i64 16
  %3 = load ptr, ptr %2, align 8
  %4 = getelementptr inbounds i8, ptr %3, i64 592
  %5 = load i32, ptr %4, align 8
  %6 = add i32 %5, 1
  %7 = getelementptr inbounds i8, ptr %0, i64 168
  %8 = load i32, ptr %7, align 8
  %.not.i = icmp sgt i32 %8, %6
  br i1 %.not.i, label %_ZN26GrowableArrayWithAllocatorIl13GrowableArrayIlEE7at_growEiRKl.exit, label %9

9:                                                ; preds = %1
  %10 = getelementptr inbounds i8, ptr %0, i64 172
  %11 = load i32, ptr %10, align 4
  %.not11.i = icmp sgt i32 %11, %6
  br i1 %.not11.i, label %22, label %12

12:                                               ; preds = %9
  %13 = add i32 %5, 2
  %14 = icmp sgt i32 %6, -1
  %15 = add i32 %5, -2147483647
  %16 = and i32 %15, %13
  %17 = icmp eq i32 %16, 0
  %18 = and i1 %14, %17
  %19 = tail call range(i32 0, 33) i32 @llvm.ctlz.i32(i32 %13, i1 true)
  %20 = sub nuw nsw i32 32, %19
  %21 = shl nuw i32 1, %20
  %.0.i.i.i.i = select i1 %18, i32 %13, i32 %21
  tail call void @_ZN26GrowableArrayWithAllocatorIl13GrowableArrayIlEE9expand_toEi(ptr noundef nonnull align 8 dereferenceable(16) %7, i32 noundef %.0.i.i.i.i)
  %.pre.i = load i32, ptr %7, align 8
  br label %22

22:                                               ; preds = %12, %9
  %23 = phi i32 [ %.pre.i, %12 ], [ %8, %9 ]
  %.not1213.i = icmp sgt i32 %23, %6
  br i1 %.not1213.i, label %.._crit_edge_crit_edge.i, label %.lr.ph.i

.._crit_edge_crit_edge.i:                         ; preds = %22
  %.pre17.i = add i32 %5, 2
  br label %._crit_edge.i

.lr.ph.i:                                         ; preds = %22
  %24 = getelementptr inbounds i8, ptr %0, i64 176
  %25 = sext i32 %23 to i64
  %26 = add i32 %5, 2
  br label %27

27:                                               ; preds = %27, %.lr.ph.i
  %indvars.iv.i = phi i64 [ %25, %.lr.ph.i ], [ %indvars.iv.next.i, %27 ]
  %28 = load ptr, ptr %24, align 8
  %29 = getelementptr inbounds i64, ptr %28, i64 %indvars.iv.i
  store i64 0, ptr %29, align 8
  %indvars.iv.next.i = add nsw i64 %indvars.iv.i, 1
  %lftr.wideiv.i = trunc i64 %indvars.iv.next.i to i32
  %exitcond.not.i = icmp eq i32 %26, %lftr.wideiv.i
  br i1 %exitcond.not.i, label %._crit_edge.i, label %27, !llvm.loop !88

._crit_edge.i:                                    ; preds = %27, %.._crit_edge_crit_edge.i
  %.pre-phi.i = phi i32 [ %.pre17.i, %.._crit_edge_crit_edge.i ], [ %26, %27 ]
  store i32 %.pre-phi.i, ptr %7, align 8
  br label %_ZN26GrowableArrayWithAllocatorIl13GrowableArrayIlEE7at_growEiRKl.exit

_ZN26GrowableArrayWithAllocatorIl13GrowableArrayIlEE7at_growEiRKl.exit: ; preds = %1, %._crit_edge.i
  %30 = getelementptr inbounds i8, ptr %0, i64 192
  store i32 0, ptr %30, align 8
  ret void
}